(lp0
S'poi'
p1
acnumpy.core.multiarray
scalar
p2
(cnumpy
dtype
p3
(S'S17'
p4
I0
I1
tp5
Rp6
(I3
S'|'
p7
NNNI17
I1
I0
tp8
bS'deferral_payments'
p9
tp10
Rp11
ag2
(g3
(S'S16'
p12
I0
I1
tp13
Rp14
(I3
S'|'
p15
NNNI16
I1
I0
tp16
bS'restricted_stock'
p17
tp18
Rp19
ag2
(g3
(S'S14'
p20
I0
I1
tp21
Rp22
(I3
S'|'
p23
NNNI14
I1
I0
tp24
bS'total_payments'
p25
tp26
Rp27
ag2
(g3
(S'S6'
p28
I0
I1
tp29
Rp30
(I3
S'|'
p31
NNNI6
I1
I0
tp32
bS'salary'
p33
tp34
Rp35
ag2
(g3
(S'S5'
p36
I0
I1
tp37
Rp38
(I3
S'|'
p39
NNNI5
I1
I0
tp40
bS'other'
p41
tp42
Rp43
ag2
(g3
(S'S17'
p44
I0
I1
tp45
Rp46
(I3
S'|'
p47
NNNI17
I1
I0
tp48
bS'total_stock_value'
p49
tp50
Rp51
ag2
(g3
(S'S8'
p52
I0
I1
tp53
Rp54
(I3
S'|'
p55
NNNI8
I1
I0
tp56
bS'expenses'
p57
tp58
Rp59
ag2
(g3
(S'S23'
p60
I0
I1
tp61
Rp62
(I3
S'|'
p63
NNNI23
I1
I0
tp64
bS'exercised_stock_options'
p65
tp66
Rp67
ag2
(g3
(S'S23'
p68
I0
I1
tp69
Rp70
(I3
S'|'
p71
NNNI23
I1
I0
tp72
bS'from_this_person_to_poi'
p73
tp74
Rp75
ag2
(g3
(S'S11'
p76
I0
I1
tp77
Rp78
(I3
S'|'
p79
NNNI11
I1
I0
tp80
bS'to_messages'
p81
tp82
Rp83
ag2
(g3
(S'S5'
p84
I0
I1
tp85
Rp86
(I3
S'|'
p87
NNNI5
I1
I0
tp88
bS'bonus'
p89
tp90
Rp91
ag2
(g3
(S'S25'
p92
I0
I1
tp93
Rp94
(I3
S'|'
p95
NNNI25
I1
I0
tp96
bS'restricted_stock_deferred'
p97
tp98
Rp99
ag2
(g3
(S'S13'
p100
I0
I1
tp101
Rp102
(I3
S'|'
p103
NNNI13
I1
I0
tp104
bS'from_messages'
p105
tp106
Rp107
ag2
(g3
(S'S23'
p108
I0
I1
tp109
Rp110
(I3
S'|'
p111
NNNI23
I1
I0
tp112
bS'shared_receipt_with_poi'
p113
tp114
Rp115
ag2
(g3
(S'S13'
p116
I0
I1
tp117
Rp118
(I3
S'|'
p119
NNNI13
I1
I0
tp120
bS'loan_advances'
p121
tp122
Rp123
a.